target datalayout = "e-m:e-p270:32:32-p271:32:32-p272:64:64-i64:64-i128:128-f80:128-n8:16:32:64-S128"
target triple = "x86_64-pc-linux-gnu"

; Function Attrs: nounwind uwtable
define void @dt_iop_image_fill(ptr noundef %0, float noundef %1, i64 noundef %2, i64 noundef %3, i64 noundef %4) #0 {
  %6 = alloca ptr, align 8
  %7 = alloca float, align 4
  %8 = alloca i64, align 8
  %9 = alloca i64, align 8
  %10 = alloca i64, align 8
  %11 = alloca i64, align 8
  %12 = alloca i64, align 8
  store ptr %0, ptr %6, align 8, !tbaa !17
  store float %1, ptr %7, align 4, !tbaa !29
  store i64 %2, ptr %8, align 8, !tbaa !21
  store i64 %3, ptr %9, align 8, !tbaa !21
  store i64 %4, ptr %10, align 8, !tbaa !21
  call void @llvm.lifetime.start.p0(i64 8, ptr %11) #9
  %13 = load i64, ptr %8, align 8, !tbaa !21
  %14 = load i64, ptr %9, align 8, !tbaa !21
  %15 = mul i64 %13, %14
  %16 = load i64, ptr %10, align 8, !tbaa !21
  %17 = mul i64 %15, %16
  store i64 %17, ptr %11, align 8, !tbaa !21
  %18 = load float, ptr %7, align 4, !tbaa !29
  %19 = fcmp reassoc nsz arcp contract afn oeq float %18, 0.000000e+00
  br i1 %19, label %20, label %24

20:                                               ; preds = %5
  %21 = load ptr, ptr %6, align 8, !tbaa !17
  %22 = load i64, ptr %11, align 8, !tbaa !21
  %23 = mul i64 4, %22
  call void @llvm.memset.p0.i64(ptr align 4 %21, i8 0, i64 %23, i1 false)
  br label %39

24:                                               ; preds = %5
  call void @llvm.lifetime.start.p0(i64 8, ptr %12) #9
  store i64 0, ptr %12, align 8, !tbaa !21
  br label %25

25:                                               ; preds = %35, %24
  %26 = load i64, ptr %12, align 8, !tbaa !21
  %27 = load i64, ptr %11, align 8, !tbaa !21
  %28 = icmp ult i64 %26, %27
  br i1 %28, label %30, label %29

29:                                               ; preds = %25
  call void @llvm.lifetime.end.p0(i64 8, ptr %12) #9
  br label %38

30:                                               ; preds = %25
  %31 = load float, ptr %7, align 4, !tbaa !29
  %32 = load ptr, ptr %6, align 8, !tbaa !17
  %33 = load i64, ptr %12, align 8, !tbaa !21
  %34 = getelementptr inbounds nuw float, ptr %32, i64 %33
  store float %31, ptr %34, align 4, !tbaa !29
  br label %35

35:                                               ; preds = %30
  %36 = load i64, ptr %12, align 8, !tbaa !21
  %37 = add i64 %36, 1
  store i64 %37, ptr %12, align 8, !tbaa !21
  br label %25

38:                                               ; preds = %29
  br label %39

39:                                               ; preds = %38, %20
  call void @llvm.lifetime.end.p0(i64 8, ptr %11) #9
  ret void
}