; Function Attrs: nofree norecurse nosync nounwind memory(argmem: write) uwtable
define void @dt_iop_image_fill(ptr noundef writeonly captures(none) %0, float noundef %1, i64 noundef %2, i64 noundef %3, i64 noundef %4) local_unnamed_addr #10 {
  %6 = mul i64 %3, %2
  %7 = mul i64 %6, %4
  %8 = fcmp reassoc nsz arcp contract afn oeq float %1, 0.000000e+00
  br i1 %8, label %9, label %.preheader

.preheader:                                       ; preds = %5
  %.not = icmp eq i64 %7, 0
  br i1 %.not, label %.loopexit, label %.lr.ph

9:                                                ; preds = %5
  %10 = shl i64 %7, 2
  tail call void @llvm.memset.p0.i64(ptr align 4 %0, i8 0, i64 %10, i1 false)
  br label %.loopexit

.lr.ph:                                           ; preds = %.preheader, %.lr.ph
  %.012 = phi i64 [ %12, %.lr.ph ], [ 0, %.preheader ]
  %11 = getelementptr inbounds nuw float, ptr %0, i64 %.012
  store float %1, ptr %11, align 4, !tbaa !32
  %12 = add nuw i64 %.012, 1
  %exitcond.not = icmp eq i64 %12, %7
  br i1 %exitcond.not, label %.loopexit, label %.lr.ph

.loopexit:                                        ; preds = %.lr.ph, %.preheader, %9
  ret void
}